; Function Attrs: nofree norecurse nosync nounwind null_pointer_is_valid sspstrong memory(read, inaccessiblemem: none) uwtable
define i32 @wtap_block_count_option(ptr noundef readonly captures(address_is_null) %0, i32 noundef %1) local_unnamed_addr #8 {
  %3 = icmp eq ptr %0, null
  br i1 %3, label %.loopexit, label %.preheader

.preheader:                                       ; preds = %2
  %4 = getelementptr inbounds nuw i8, ptr %0, i64 16
  %5 = load ptr, ptr %4, align 8
  %6 = getelementptr inbounds nuw i8, ptr %5, i64 8
  %7 = load i32, ptr %6, align 8
  %.not = icmp eq i32 %7, 0
  br i1 %.not, label %.loopexit, label %.lr.ph

.lr.ph:                                           ; preds = %.preheader
  %8 = load ptr, ptr %5, align 8
  %wide.trip.count = zext i32 %7 to i64
  br label %9

9:                                                ; preds = %.lr.ph, %9
  %indvars.iv = phi i64 [ 0, %.lr.ph ], [ %indvars.iv.next, %9 ]
  %.01014 = phi i32 [ 0, %.lr.ph ], [ %spec.select, %9 ]
  %10 = getelementptr %struct.wtap_option_t, ptr %8, i64 %indvars.iv
  %11 = load i32, ptr %10, align 8
  %12 = icmp eq i32 %11, %1
  %13 = zext i1 %12 to i32
  %spec.select = add i32 %.01014, %13
  %indvars.iv.next = add nuw nsw i64 %indvars.iv, 1
  %exitcond.not = icmp eq i64 %indvars.iv.next, %wide.trip.count
  br i1 %exitcond.not, label %.loopexit, label %9, !llvm.loop !16

.loopexit:                                        ; preds = %9, %.preheader, %2
  %.0 = phi i32 [ 0, %2 ], [ 0, %.preheader ], [ %spec.select, %9 ]
  ret i32 %.0
}